; ModuleID = 'bench/duckdb/original/bitmap.ll'
source_filename = "bench/duckdb/original/bitmap.ll"
target datalayout = "e-m:e-p270:32:32-p271:32:32-p272:64:64-i64:64-i128:128-f80:128-n8:16:32:64-S128"
target triple = "x86_64-pc-linux-gnu"

; Function Attrs: mustprogress nofree norecurse nosync nounwind willreturn memory(argmem: write) uwtable
define void @duckdb_je_bitmap_info_init(ptr noundef writeonly captures(none) initializes((0, 16)) %0, i64 noundef %1) local_unnamed_addr #0 {
  %3 = add i64 %1, 63
  %4 = lshr i64 %3, 6
  %5 = getelementptr inbounds nuw i8, ptr %0, i64 8
  store i64 %4, ptr %5, align 8, !tbaa !3
  store i64 %1, ptr %0, align 8, !tbaa !8
  ret void
}

; Function Attrs: mustprogress nofree norecurse nosync nounwind willreturn memory(argmem: readwrite) uwtable
define void @duckdb_je_bitmap_init(ptr noundef captures(none) %0, ptr noundef readonly captures(none) %1, i1 noundef zeroext %2) local_unnamed_addr #1 {
  %4 = getelementptr i8, ptr %1, i64 8
  %.val.i = load i64, ptr %4, align 8, !tbaa !3
  %5 = shl i64 %.val.i, 3
  br i1 %2, label %6, label %7

6:                                                ; preds = %3
  tail call void @llvm.memset.p0.i64(ptr align 8 %0, i8 0, i64 %5, i1 false)
  br label %17

7:                                                ; preds = %3
  tail call void @llvm.memset.p0.i64(ptr align 8 %0, i8 -1, i64 %5, i1 false)
  %8 = load i64, ptr %1, align 8, !tbaa !8
  %9 = sub i64 0, %8
  %10 = and i64 %9, 63
  %.not = icmp eq i64 %10, 0
  br i1 %.not, label %17, label %11

11:                                               ; preds = %7
  %12 = load i64, ptr %4, align 8, !tbaa !3
  %13 = getelementptr i64, ptr %0, i64 %12
  %14 = getelementptr i8, ptr %13, i64 -8
  %15 = load i64, ptr %14, align 8, !tbaa !9
  %16 = lshr i64 %15, %10
  store i64 %16, ptr %14, align 8, !tbaa !9
  br label %17

17:                                               ; preds = %7, %11, %6
  ret void
}

; Function Attrs: mustprogress nofree norecurse nosync nounwind willreturn memory(argmem: read) uwtable
define range(i64 0, -7) i64 @duckdb_je_bitmap_size(ptr noundef readonly captures(none) %0) local_unnamed_addr #2 {
  %2 = getelementptr i8, ptr %0, i64 8
  %.val = load i64, ptr %2, align 8, !tbaa !3
  %3 = shl i64 %.val, 3
  ret i64 %3
}

; Function Attrs: mustprogress nocallback nofree nounwind willreturn memory(argmem: write)
declare void @llvm.memset.p0.i64(ptr writeonly captures(none), i8, i64, i1 immarg) #3


!llvm.module.flags = !{!0, !1, !2}

!0 = !{i32 1, !"wchar_size", i32 4}
!1 = !{i32 8, !"PIC Level", i32 2}
!2 = !{i32 7, !"uwtable", i32 2}
!3 = !{!4, !5, i64 8}
!4 = !{!"bitmap_info_s", !5, i64 0, !5, i64 8}
!5 = !{!"long", !6, i64 0}
!6 = !{!"omnipotent char", !7, i64 0}
!7 = !{!"Simple C/C++ TBAA"}
!8 = !{!4, !5, i64 0}
!9 = !{!5, !5, i64 0}
